; Function Attrs: mustprogress nounwind uwtable
define hidden void @_ZN25InterpreterMacroAssembler13dispatch_nextE8TosStateib(ptr noundef nonnull align 8 dereferenceable(48) %0, i32 noundef %1, i32 noundef %2, i1 noundef zeroext %3) local_unnamed_addr #0 align 2 {
  %5 = alloca %class.Address, align 8
  %6 = getelementptr inbounds i8, ptr %0, i64 44
  %.sroa.01.0.copyload = load i32, ptr %6, align 4
  store i32 %.sroa.01.0.copyload, ptr %5, align 8
  %7 = getelementptr inbounds i8, ptr %5, i64 4
  store i32 -1, ptr %7, align 4
  %8 = getelementptr inbounds i8, ptr %5, i64 8
  store i32 -1, ptr %8, align 8
  %9 = getelementptr inbounds i8, ptr %5, i64 12
  store i32 -1, ptr %9, align 4
  %10 = getelementptr inbounds i8, ptr %5, i64 16
  store i32 %2, ptr %10, align 8
  %11 = getelementptr inbounds i8, ptr %5, i64 20
  store i8 0, ptr %11, align 4
  %12 = getelementptr inbounds i8, ptr %5, i64 24
  store ptr getelementptr inbounds inrange(-16, 72) (i8, ptr @_ZTV10Relocation, i64 16), ptr %12, align 8
  %13 = getelementptr inbounds i8, ptr %5, i64 32
  store ptr null, ptr %13, align 8
  %14 = getelementptr inbounds i8, ptr %5, i64 40
  store i32 0, ptr %14, align 8
  %15 = call noundef i32 @_ZN14MacroAssembler18load_unsigned_byteE8Register7Address(ptr noundef nonnull align 8 dereferenceable(40) %0, i32 3, ptr noundef nonnull %5) #8
  %.sroa.0.0.copyload = load i32, ptr %6, align 4
  call void @_ZN14MacroAssembler10incrementqE8Registeri(ptr noundef nonnull align 8 dereferenceable(40) %0, i32 %.sroa.0.0.copyload, i32 noundef %2) #8
  %16 = zext i32 %1 to i64
  %17 = getelementptr inbounds [10 x [256 x ptr]], ptr @_ZN19TemplateInterpreter13_active_tableE, i64 0, i64 %16
  call void @_ZN25InterpreterMacroAssembler13dispatch_baseE8TosStatePPhbb(ptr noundef nonnull align 8 dereferenceable(48) %0, i32 noundef %1, ptr noundef nonnull %17, i1 zeroext poison, i1 noundef zeroext %3)
  ret void
}